Certificate:
    Data:
        Version: 3 (0x2)
        Serial Number:
            37:cd:75:a3:7e:0b:fe:7a:29:5d:d3:b4:e4:ef:38:55:98:b9:31:2d
        Signature Algorithm: sha256WithRSAEncryption
        Issuer: C=TW, ST=TW, L=TAINAN, O=NCKU, CN=f74091247
        Validity
            Not Before: May 24 14:59:55 2023 GMT
            Not After : May 23 14:59:55 2026 GMT
        Subject: C=TW, ST=TW, O=NCKU, CN=f74091247.sa
        Subject Public Key Info:
            Public Key Algorithm: rsaEncryption
                RSA Public-Key: (2048 bit)
                Modulus:
                    00:af:f5:cf:90:f9:6d:78:a0:7a:df:13:84:18:71:
                    d7:ec:86:83:54:f9:73:5d:7f:b7:fd:cc:7d:84:4e:
                    e1:1f:5a:4c:c3:14:80:ed:ef:09:18:71:fc:f0:9e:
                    3b:59:4e:b0:31:7d:e6:24:92:2c:bf:7c:8b:39:bb:
                    b9:25:f1:3f:17:bf:fc:0e:dd:96:1a:3a:b8:c4:ef:
                    c2:17:0c:3f:92:ca:59:47:1c:0c:58:15:f5:83:f2:
                    b1:93:88:d7:e4:69:0a:6d:cb:90:76:95:54:ee:79:
                    38:2f:ca:05:34:71:74:42:a6:87:58:39:bf:23:d4:
                    68:f6:73:32:fc:0e:53:33:13:a7:04:45:32:55:60:
                    7f:7f:32:35:76:79:b4:39:59:d3:3a:92:fb:43:38:
                    58:0b:7b:f3:37:a7:33:f9:bc:df:2a:c3:66:09:11:
                    64:c0:e9:45:53:35:59:34:22:65:49:8b:38:8c:69:
                    e9:ca:7c:ca:59:6a:3b:66:3f:79:a3:ae:3e:27:97:
                    81:f3:7c:3c:f2:2e:92:c8:41:e8:d5:58:7c:28:22:
                    26:d8:46:f3:bb:55:30:54:95:cd:fd:3f:28:42:a8:
                    62:f1:00:6e:42:f1:e7:4a:56:2f:04:50:43:12:76:
                    0c:b1:7b:c6:df:f3:b9:33:21:32:21:ac:f7:ee:25:
                    f6:9b
                Exponent: 65537 (0x10001)
        X509v3 extensions:
            X509v3 Basic Constraints: 
                CA:TRUE
            X509v3 Subject Key Identifier: 
                7C:48:A6:EC:AF:AB:DE:56:77:B1:B6:70:D6:1B:17:6F:04:E6:9F:22
            X509v3 Authority Key Identifier: 
                keyid:5E:F1:69:BB:1E:F8:6E:94:2F:84:8C:04:7A:86:C8:C1:70:D9:41:28
                DirName:/CN=saroot
                serial:21:28:89:7C:BE:01:B1:3C:B9:24:99:C5:AA:2A:97:F1

            X509v3 Extended Key Usage: 
                TLS Web Server Authentication
            X509v3 Key Usage: 
                Digital Signature, Key Encipherment
            Authority Information Access: 
                CA Issuers - URI:http://ca.sa/ca

            X509v3 CRL Distribution Points: 

                Full Name:
                  URI:http://ca.sa/crl

    Signature Algorithm: sha256WithRSAEncryption
         b7:13:65:22:bc:cf:09:6f:f7:9e:11:64:f0:e0:d9:d7:42:bd:
         18:b0:e9:db:24:b9:12:8f:08:25:20:45:47:3d:90:79:69:4e:
         d7:b6:6c:e0:0d:7e:cc:cd:c0:1b:09:5f:76:ed:b5:0d:2d:e1:
         2a:c6:9d:af:fd:74:7a:57:43:da:26:c8:50:e4:d1:95:f8:ca:
         11:c3:00:1c:c6:d6:b9:f7:22:e2:a8:72:6f:ed:60:e6:49:b0:
         86:1d:cf:55:74:5e:61:f1:ee:43:c8:17:3a:52:9b:b0:59:68:
         12:f0:97:68:be:9b:33:30:22:df:28:b0:f7:29:c6:d5:aa:5e:
         b1:10:11:a7:6d:db:93:c0:49:ec:7a:f4:74:c6:aa:c4:d7:ff:
         00:f3:87:bf:06:1c:30:af:21:66:a5:d4:35:6a:90:ee:39:a5:
         a4:98:89:68:38:50:5e:e4:18:48:24:34:be:82:b4:e4:84:23:
         a6:dd:9e:e3:3c:76:6d:7a:72:49:f3:c4:2f:b7:05:65:70:ae:
         4d:56:a6:7f:3b:b8:bd:83:03:0a:98:0d:7e:c9:51:2b:5b:97:
         2a:c9:76:ce:05:8d:90:30:36:7e:ba:68:6c:27:9c:2f:48:81:
         2f:46:8b:83:91:06:0b:9c:a5:f0:8b:99:7d:14:10:cc:55:fe:
         9c:5a:df:82
-----BEGIN CERTIFICATE-----
MIIECTCCAvGgAwIBAgIUN811o34L/nopXdO05O84VZi5MS0wDQYJKoZIhvcNAQEL
BQAwTjELMAkGA1UEBhMCVFcxCzAJBgNVBAgMAlRXMQ8wDQYDVQQHDAZUQUlOQU4x
DTALBgNVBAoMBE5DS1UxEjAQBgNVBAMMCWY3NDA5MTI0NzAeFw0yMzA1MjQxNDU5
NTVaFw0yNjA1MjMxNDU5NTVaMEAxCzAJBgNVBAYTAlRXMQswCQYDVQQIDAJUVzEN
MAsGA1UECgwETkNLVTEVMBMGA1UEAwwMZjc0MDkxMjQ3LnNhMIIBIjANBgkqhkiG
9w0BAQEFAAOCAQ8AMIIBCgKCAQEAr/XPkPlteKB63xOEGHHX7IaDVPlzXX+3/cx9
hE7hH1pMwxSA7e8JGHH88J47WU6wMX3mJJIsv3yLObu5JfE/F7/8Dt2WGjq4xO/C
Fww/kspZRxwMWBX1g/Kxk4jX5GkKbcuQdpVU7nk4L8oFNHF0QqaHWDm/I9Ro9nMy
/A5TMxOnBEUyVWB/fzI1dnm0OVnTOpL7QzhYC3vzN6cz+bzfKsNmCRFkwOlFUzVZ
NCJlSYs4jGnpynzKWWo7Zj95o64+J5eB83w88i6SyEHo1Vh8KCIm2Ebzu1UwVJXN
/T8oQqhi8QBuQvHnSlYvBFBDEnYMsXvG3/O5MyEyIaz37iX2mwIDAQABo4HsMIHp
MAwGA1UdEwQFMAMBAf8wHQYDVR0OBBYEFHxIpuyvq95Wd7G2cNYbF28E5p8iMEgG
A1UdIwRBMD+AFF7xabse+G6UL4SMBHqGyMFw2UEooRWkEzARMQ8wDQYDVQQDDAZz
YXJvb3SCECEoiXy+AbE8uSSZxaoql/EwEwYDVR0lBAwwCgYIKwYBBQUHAwEwCwYD
VR0PBAQDAgWgMCsGCCsGAQUFBwEBBB8wHTAbBggrBgEFBQcwAoYPaHR0cDovL2Nh
LnNhL2NhMCEGA1UdHwQaMBgwFqAUoBKGEGh0dHA6Ly9jYS5zYS9jcmwwDQYJKoZI
hvcNAQELBQADggEBALcTZSK8zwlv954RZPDg2ddCvRiw6dskuRKPCCUgRUc9kHlp
Tte2bOANfszNwBsJX3bttQ0t4SrGna/9dHpXQ9omyFDk0ZX4yhHDABzG1rn3IuKo
cm/tYOZJsIYdz1V0XmHx7kPIFzpSm7BZaBLwl2i+mzMwIt8osPcpxtWqXrEQEadt
25PASex69HTGqsTX/wDzh78GHDCvIWal1DVqkO45paSYiWg4UF7kGEgkNL6CtOSE
I6bdnuM8dm16cknzxC+3BWVwrk1Wpn87uL2DAwqYDX7JUStblyrJds4FjZAwNn66
aGwnnC9IgS9Gi4ORBgucpfCLmX0UEMxV/pxa34I=
-----END CERTIFICATE-----
