Certificate:
    Data:
        Version: 3 (0x2)
        Serial Number:
            7c:62:12:5a:22:07:b0:f5:2f:3f:74:5c:80:1f:fe:08:5f:95:53:5b
        Signature Algorithm: sha256WithRSAEncryption
        Issuer: C=TW, ST=TW, L=TAINAN, O=NCKU, CN=f74091247
        Validity
            Not Before: May 23 20:47:44 2023 GMT
            Not After : May 22 20:47:44 2026 GMT
        Subject: C=TW, ST=TW, O=NCKU, CN=f74091247.sa
        Subject Public Key Info:
            Public Key Algorithm: rsaEncryption
                RSA Public-Key: (2048 bit)
                Modulus:
                    00:af:f5:cf:90:f9:6d:78:a0:7a:df:13:84:18:71:
                    d7:ec:86:83:54:f9:73:5d:7f:b7:fd:cc:7d:84:4e:
                    e1:1f:5a:4c:c3:14:80:ed:ef:09:18:71:fc:f0:9e:
                    3b:59:4e:b0:31:7d:e6:24:92:2c:bf:7c:8b:39:bb:
                    b9:25:f1:3f:17:bf:fc:0e:dd:96:1a:3a:b8:c4:ef:
                    c2:17:0c:3f:92:ca:59:47:1c:0c:58:15:f5:83:f2:
                    b1:93:88:d7:e4:69:0a:6d:cb:90:76:95:54:ee:79:
                    38:2f:ca:05:34:71:74:42:a6:87:58:39:bf:23:d4:
                    68:f6:73:32:fc:0e:53:33:13:a7:04:45:32:55:60:
                    7f:7f:32:35:76:79:b4:39:59:d3:3a:92:fb:43:38:
                    58:0b:7b:f3:37:a7:33:f9:bc:df:2a:c3:66:09:11:
                    64:c0:e9:45:53:35:59:34:22:65:49:8b:38:8c:69:
                    e9:ca:7c:ca:59:6a:3b:66:3f:79:a3:ae:3e:27:97:
                    81:f3:7c:3c:f2:2e:92:c8:41:e8:d5:58:7c:28:22:
                    26:d8:46:f3:bb:55:30:54:95:cd:fd:3f:28:42:a8:
                    62:f1:00:6e:42:f1:e7:4a:56:2f:04:50:43:12:76:
                    0c:b1:7b:c6:df:f3:b9:33:21:32:21:ac:f7:ee:25:
                    f6:9b
                Exponent: 65537 (0x10001)
        X509v3 extensions:
            X509v3 Basic Constraints: 
                CA:FALSE
            X509v3 Subject Key Identifier: 
                7C:48:A6:EC:AF:AB:DE:56:77:B1:B6:70:D6:1B:17:6F:04:E6:9F:22
            X509v3 Authority Key Identifier: 
                keyid:5E:F1:69:BB:1E:F8:6E:94:2F:84:8C:04:7A:86:C8:C1:70:D9:41:28
                DirName:/CN=saroot
                serial:21:28:89:7C:BE:01:B1:3C:B9:24:99:C5:AA:2A:97:F1

            X509v3 Extended Key Usage: 
                TLS Web Server Authentication
            X509v3 Key Usage: 
                Digital Signature, Key Encipherment
            X509v3 Subject Alternative Name: 
                DNS:f74091247.sa
    Signature Algorithm: sha256WithRSAEncryption
         1a:91:8e:fa:d0:63:0e:df:81:42:1c:6d:1a:36:09:e2:85:44:
         ef:62:54:69:48:66:a7:88:9c:6b:35:d5:94:c4:0c:7f:e4:bc:
         78:45:c3:25:b9:aa:b3:6d:d2:2f:6d:77:95:25:8e:e9:9d:99:
         0b:0c:0f:ae:ac:49:b1:b0:bc:c6:87:c1:db:ae:ae:68:4a:de:
         76:4d:a1:14:90:9d:53:ee:df:e0:7f:82:e6:b3:8f:84:3d:2e:
         fd:5e:f8:20:20:4a:61:53:5e:fe:65:d0:10:e4:35:f2:8f:06:
         c8:a2:e4:40:81:b8:a7:af:8f:48:b1:29:79:92:58:c9:17:d4:
         57:18:12:d7:db:1a:28:a8:42:f0:88:5b:7b:f0:02:f1:98:65:
         41:d6:97:8b:76:26:df:42:d0:a0:4c:34:78:21:e4:35:0a:b7:
         19:10:38:c4:5e:a3:c2:9f:ef:f4:47:24:1d:d9:11:fa:86:5c:
         b9:60:68:4d:4e:58:29:87:3e:13:c9:70:1c:15:7a:ca:ce:6a:
         3b:37:88:2d:ab:69:4e:32:e0:60:b4:0e:3f:ad:9d:c0:55:82:
         b7:dd:a9:82:e4:a0:1c:09:5b:0a:d8:85:61:6a:ad:94:8a:d0:
         ff:0d:2b:64:4c:88:ea:2a:a6:cc:8e:45:4e:88:aa:88:e5:2a:
         fb:6e:57:6d
-----BEGIN CERTIFICATE-----
MIIDzzCCAregAwIBAgIUfGISWiIHsPUvP3RcgB/+CF+VU1swDQYJKoZIhvcNAQEL
BQAwTjELMAkGA1UEBhMCVFcxCzAJBgNVBAgMAlRXMQ8wDQYDVQQHDAZUQUlOQU4x
DTALBgNVBAoMBE5DS1UxEjAQBgNVBAMMCWY3NDA5MTI0NzAeFw0yMzA1MjMyMDQ3
NDRaFw0yNjA1MjIyMDQ3NDRaMEAxCzAJBgNVBAYTAlRXMQswCQYDVQQIDAJUVzEN
MAsGA1UECgwETkNLVTEVMBMGA1UEAwwMZjc0MDkxMjQ3LnNhMIIBIjANBgkqhkiG
9w0BAQEFAAOCAQ8AMIIBCgKCAQEAr/XPkPlteKB63xOEGHHX7IaDVPlzXX+3/cx9
hE7hH1pMwxSA7e8JGHH88J47WU6wMX3mJJIsv3yLObu5JfE/F7/8Dt2WGjq4xO/C
Fww/kspZRxwMWBX1g/Kxk4jX5GkKbcuQdpVU7nk4L8oFNHF0QqaHWDm/I9Ro9nMy
/A5TMxOnBEUyVWB/fzI1dnm0OVnTOpL7QzhYC3vzN6cz+bzfKsNmCRFkwOlFUzVZ
NCJlSYs4jGnpynzKWWo7Zj95o64+J5eB83w88i6SyEHo1Vh8KCIm2Ebzu1UwVJXN
/T8oQqhi8QBuQvHnSlYvBFBDEnYMsXvG3/O5MyEyIaz37iX2mwIDAQABo4GyMIGv
MAkGA1UdEwQCMAAwHQYDVR0OBBYEFHxIpuyvq95Wd7G2cNYbF28E5p8iMEgGA1Ud
IwRBMD+AFF7xabse+G6UL4SMBHqGyMFw2UEooRWkEzARMQ8wDQYDVQQDDAZzYXJv
b3SCECEoiXy+AbE8uSSZxaoql/EwEwYDVR0lBAwwCgYIKwYBBQUHAwEwCwYDVR0P
BAQDAgWgMBcGA1UdEQQQMA6CDGY3NDA5MTI0Ny5zYTANBgkqhkiG9w0BAQsFAAOC
AQEAGpGO+tBjDt+BQhxtGjYJ4oVE72JUaUhmp4icazXVlMQMf+S8eEXDJbmqs23S
L213lSWO6Z2ZCwwPrqxJsbC8xofB266uaEredk2hFJCdU+7f4H+C5rOPhD0u/V74
ICBKYVNe/mXQEOQ18o8GyKLkQIG4p6+PSLEpeZJYyRfUVxgS19saKKhC8Ihbe/AC
8ZhlQdaXi3Ym30LQoEw0eCHkNQq3GRA4xF6jwp/v9EckHdkR+oZcuWBoTU5YKYc+
E8lwHBV6ys5qOzeILatpTjLgYLQOP62dwFWCt92pguSgHAlbCtiFYWqtlIrQ/w0r
ZEyI6iqmzI5FToiqiOUq+25XbQ==
-----END CERTIFICATE-----
